; Function Attrs: mustprogress uwtable
define noundef i32 @_ZNK6casadi3Map10sp_reverseEPPyS2_PxS1_Pv(ptr noundef nonnull align 8 dereferenceable(1320) %0, ptr noundef %1, ptr noundef %2, ptr noundef %3, ptr noundef %4, ptr nocapture readnone %5) unnamed_addr #3 align 2 {
  %7 = getelementptr inbounds i8, ptr %0, i64 176
  %8 = load i64, ptr %7, align 8
  %9 = getelementptr inbounds ptr, ptr %1, i64 %8
  %10 = icmp eq i64 %8, 0
  br i1 %10, label %_ZSt6copy_nIPPymS1_ET1_T_T0_S2_.exit, label %_ZSt8__copy_nIPPymS1_ET1_T_T0_S2_St26random_access_iterator_tag.exit.i

_ZSt8__copy_nIPPymS1_ET1_T_T0_S2_St26random_access_iterator_tag.exit.i: ; preds = %6
  %.idx.i.i = shl nsw i64 %8, 3
  tail call void @llvm.memmove.p0.p0.i64(ptr nonnull align 8 %9, ptr align 8 %1, i64 %.idx.i.i, i1 false)
  br label %_ZSt6copy_nIPPymS1_ET1_T_T0_S2_.exit

_ZSt6copy_nIPPymS1_ET1_T_T0_S2_.exit:             ; preds = %6, %_ZSt8__copy_nIPPymS1_ET1_T_T0_S2_St26random_access_iterator_tag.exit.i
  %11 = getelementptr inbounds i8, ptr %0, i64 184
  %12 = load i64, ptr %11, align 8
  %13 = getelementptr inbounds ptr, ptr %2, i64 %12
  %14 = icmp eq i64 %12, 0
  br i1 %14, label %_ZSt6copy_nIPPymS1_ET1_T_T0_S2_.exit35, label %_ZSt8__copy_nIPPymS1_ET1_T_T0_S2_St26random_access_iterator_tag.exit.i32

_ZSt8__copy_nIPPymS1_ET1_T_T0_S2_St26random_access_iterator_tag.exit.i32: ; preds = %_ZSt6copy_nIPPymS1_ET1_T_T0_S2_.exit
  %.idx.i.i33 = shl nsw i64 %12, 3
  tail call void @llvm.memmove.p0.p0.i64(ptr nonnull align 8 %13, ptr align 8 %2, i64 %.idx.i.i33, i1 false)
  br label %_ZSt6copy_nIPPymS1_ET1_T_T0_S2_.exit35

_ZSt6copy_nIPPymS1_ET1_T_T0_S2_.exit35:           ; preds = %_ZSt6copy_nIPPymS1_ET1_T_T0_S2_.exit, %_ZSt8__copy_nIPPymS1_ET1_T_T0_S2_St26random_access_iterator_tag.exit.i32
  %15 = getelementptr inbounds i8, ptr %0, i64 1304
  %16 = getelementptr inbounds i8, ptr %0, i64 1312
  %17 = load i64, ptr %16, align 8
  %18 = icmp sgt i64 %17, 0
  br i1 %18, label %.lr.ph41, label %._crit_edge42

.lr.ph41:                                         ; preds = %_ZSt6copy_nIPPymS1_ET1_T_T0_S2_.exit35, %._crit_edge
  %.02840 = phi i64 [ %44, %._crit_edge ], [ 0, %_ZSt6copy_nIPPymS1_ET1_T_T0_S2_.exit35 ]
  %19 = tail call noundef i32 @_ZNK6casadi8Function3revEPPyS2_PxS1_i(ptr noundef nonnull align 8 dereferenceable(8) %15, ptr noundef %9, ptr noundef %13, ptr noundef %3, ptr noundef %4, i32 noundef 0)
  %.not = icmp eq i32 %19, 0
  br i1 %.not, label %.preheader36, label %._crit_edge42

.preheader36:                                     ; preds = %.lr.ph41
  %20 = load i64, ptr %7, align 8
  %.not45 = icmp eq i64 %20, 0
  br i1 %.not45, label %.preheader, label %.lr.ph

.preheader:                                       ; preds = %29, %.preheader36
  %21 = load i64, ptr %11, align 8
  %.not46 = icmp eq i64 %21, 0
  br i1 %.not46, label %._crit_edge, label %.lr.ph39

.lr.ph:                                           ; preds = %.preheader36, %29
  %22 = phi i64 [ %30, %29 ], [ %20, %.preheader36 ]
  %.02737 = phi i64 [ %31, %29 ], [ 0, %.preheader36 ]
  %23 = getelementptr inbounds ptr, ptr %9, i64 %.02737
  %24 = load ptr, ptr %23, align 8
  %.not31 = icmp eq ptr %24, null
  br i1 %.not31, label %29, label %25

25:                                               ; preds = %.lr.ph
  %26 = tail call noundef i64 @_ZNK6casadi8Function6nnz_inEx(ptr noundef nonnull align 8 dereferenceable(8) %15, i64 noundef %.02737)
  %27 = load ptr, ptr %23, align 8
  %28 = getelementptr inbounds i64, ptr %27, i64 %26
  store ptr %28, ptr %23, align 8
  %.pre = load i64, ptr %7, align 8
  br label %29

29:                                               ; preds = %.lr.ph, %25
  %30 = phi i64 [ %22, %.lr.ph ], [ %.pre, %25 ]
  %31 = add nuw nsw i64 %.02737, 1
  %32 = icmp ult i64 %31, %30
  br i1 %32, label %.lr.ph, label %.preheader, !llvm.loop !33

.lr.ph39:                                         ; preds = %.preheader, %40
  %33 = phi i64 [ %41, %40 ], [ %21, %.preheader ]
  %.038 = phi i64 [ %42, %40 ], [ 0, %.preheader ]
  %34 = getelementptr inbounds ptr, ptr %13, i64 %.038
  %35 = load ptr, ptr %34, align 8
  %.not30 = icmp eq ptr %35, null
  br i1 %.not30, label %40, label %36

36:                                               ; preds = %.lr.ph39
  %37 = tail call noundef i64 @_ZNK6casadi8Function7nnz_outEx(ptr noundef nonnull align 8 dereferenceable(8) %15, i64 noundef %.038)
  %38 = load ptr, ptr %34, align 8
  %39 = getelementptr inbounds i64, ptr %38, i64 %37
  store ptr %39, ptr %34, align 8
  %.pre47 = load i64, ptr %11, align 8
  br label %40

40:                                               ; preds = %.lr.ph39, %36
  %41 = phi i64 [ %33, %.lr.ph39 ], [ %.pre47, %36 ]
  %42 = add nuw nsw i64 %.038, 1
  %43 = icmp ult i64 %42, %41
  br i1 %43, label %.lr.ph39, label %._crit_edge, !llvm.loop !34

._crit_edge:                                      ; preds = %40, %.preheader
  %44 = add nuw nsw i64 %.02840, 1
  %45 = load i64, ptr %16, align 8
  %46 = icmp slt i64 %44, %45
  br i1 %46, label %.lr.ph41, label %._crit_edge42, !llvm.loop !35

._crit_edge42:                                    ; preds = %.lr.ph41, %._crit_edge, %_ZSt6copy_nIPPymS1_ET1_T_T0_S2_.exit35
  %.029 = phi i32 [ 0, %_ZSt6copy_nIPPymS1_ET1_T_T0_S2_.exit35 ], [ 0, %._crit_edge ], [ 1, %.lr.ph41 ]
  ret i32 %.029
}